; ModuleID = '27/1431.c'
source_filename = "27/1431.c"
target datalayout = "e-m:e-p270:32:32-p271:32:32-p272:64:64-i64:64-f80:128-n8:16:32:64-S128"
target triple = "x86_64-pc-linux-gnu"

@.str = private unnamed_addr constant [3 x i8] c"%d\00", align 1
@.str.1 = private unnamed_addr constant [10 x i8] c"%lf%lf%lf\00", align 1
@.str.2 = private unnamed_addr constant [12 x i8] c"x1=x2=%.5f\0A\00", align 1
@.str.3 = private unnamed_addr constant [17 x i8] c"x1=%.5f;x2=%.5f\0A\00", align 1
@.str.4 = private unnamed_addr constant [29 x i8] c"x1=%.5f+%.5fi;x2=%.5f-%.5fi\0A\00", align 1

; Function Attrs: noinline nounwind uwtable
define dso_local i32 @main() #0 {
  %1 = alloca i32, align 4
  %2 = alloca i32, align 4
  %3 = alloca i32, align 4
  %4 = alloca double, align 8
  %5 = alloca double, align 8
  %6 = alloca double, align 8
  %7 = alloca double, align 8
  %8 = alloca double, align 8
  %9 = alloca double, align 8
  %10 = alloca double, align 8
  store i32 0, i32* %1, align 4
  %11 = call i32 (i8*, ...) @__isoc99_scanf(i8* getelementptr inbounds ([3 x i8], [3 x i8]* @.str, i64 0, i64 0), i32* %2)
  store i32 0, i32* %3, align 4
  br label %12

12:                                               ; preds = %77, %0
  %13 = load i32, i32* %3, align 4
  %14 = load i32, i32* %2, align 4
  %15 = icmp slt i32 %13, %14
  br i1 %15, label %16, label %80

16:                                               ; preds = %12
  %17 = call i32 (i8*, ...) @__isoc99_scanf(i8* getelementptr inbounds ([10 x i8], [10 x i8]* @.str.1, i64 0, i64 0), double* %4, double* %5, double* %6)
  %18 = load double, double* %5, align 8
  %19 = load double, double* %5, align 8
  %20 = fmul double %18, %19
  %21 = load double, double* %4, align 8
  %22 = fmul double 4.000000e+00, %21
  %23 = load double, double* %6, align 8
  %24 = fmul double %22, %23
  %25 = fsub double %20, %24
  store double %25, double* %7, align 8
  %26 = load double, double* %7, align 8
  %27 = fcmp oeq double %26, 0.000000e+00
  br i1 %27, label %28, label %36

28:                                               ; preds = %16
  %29 = load double, double* %5, align 8
  %30 = fneg double %29
  %31 = load double, double* %4, align 8
  %32 = fmul double 2.000000e+00, %31
  %33 = fdiv double %30, %32
  store double %33, double* %10, align 8
  store double %33, double* %9, align 8
  %34 = load double, double* %9, align 8
  %35 = call i32 (i8*, ...) @printf(i8* getelementptr inbounds ([12 x i8], [12 x i8]* @.str.2, i64 0, i64 0), double %34)
  br label %77

36:                                               ; preds = %16
  %37 = load double, double* %7, align 8
  %38 = fcmp ogt double %37, 0.000000e+00
  br i1 %38, label %39, label %59

39:                                               ; preds = %36
  %40 = load double, double* %5, align 8
  %41 = fneg double %40
  %42 = load double, double* %7, align 8
  %43 = call double @sqrt(double %42) #3
  %44 = fadd double %41, %43
  %45 = load double, double* %4, align 8
  %46 = fmul double 2.000000e+00, %45
  %47 = fdiv double %44, %46
  store double %47, double* %9, align 8
  %48 = load double, double* %5, align 8
  %49 = fneg double %48
  %50 = load double, double* %7, align 8
  %51 = call double @sqrt(double %50) #3
  %52 = fsub double %49, %51
  %53 = load double, double* %4, align 8
  %54 = fmul double 2.000000e+00, %53
  %55 = fdiv double %52, %54
  store double %55, double* %10, align 8
  %56 = load double, double* %9, align 8
  %57 = load double, double* %10, align 8
  %58 = call i32 (i8*, ...) @printf(i8* getelementptr inbounds ([17 x i8], [17 x i8]* @.str.3, i64 0, i64 0), double %56, double %57)
  br label %76

59:                                               ; preds = %36
  %60 = load double, double* %7, align 8
  %61 = fsub double 0.000000e+00, %60
  %62 = call double @sqrt(double %61) #3
  %63 = load double, double* %4, align 8
  %64 = fmul double 2.000000e+00, %63
  %65 = fdiv double %62, %64
  store double %65, double* %8, align 8
  %66 = load double, double* %5, align 8
  %67 = fneg double %66
  %68 = load double, double* %4, align 8
  %69 = fmul double 2.000000e+00, %68
  %70 = fdiv double %67, %69
  store double %70, double* %9, align 8
  %71 = load double, double* %9, align 8
  %72 = load double, double* %8, align 8
  %73 = load double, double* %9, align 8
  %74 = load double, double* %8, align 8
  %75 = call i32 (i8*, ...) @printf(i8* getelementptr inbounds ([29 x i8], [29 x i8]* @.str.4, i64 0, i64 0), double %71, double %72, double %73, double %74)
  br label %76

76:                                               ; preds = %59, %39
  br label %77

77:                                               ; preds = %76, %28
  %78 = load i32, i32* %3, align 4
  %79 = add nsw i32 %78, 1
  store i32 %79, i32* %3, align 4
  br label %12

80:                                               ; preds = %12
  ret i32 0
}

declare dso_local i32 @__isoc99_scanf(i8*, ...) #1

declare dso_local i32 @printf(i8*, ...) #1

; Function Attrs: nounwind
declare dso_local double @sqrt(double) #2


!llvm.module.flags = !{!0}
!llvm.ident = !{!1}

!0 = !{i32 1, !"wchar_size", i32 4}
!1 = !{!"clang version 10.0.0-4ubuntu1 "}
